target datalayout = "e-m:e-p270:32:32-p271:32:32-p272:64:64-i64:64-i128:128-f80:128-n8:16:32:64-S128"
target triple = "x86_64-pc-linux-gnu"

%struct.GetOneCameraData = type { ptr, i32 }

; Function Attrs: nounwind uwtable
define internal zeroext i1 @GetOneCamera(ptr noundef %0, ptr noundef %1, ptr noundef %2, ptr noundef %3) #0 {
  %5 = alloca ptr, align 8
  %6 = alloca ptr, align 8
  %7 = alloca ptr, align 8
  %8 = alloca ptr, align 8
  %9 = alloca ptr, align 8
  store ptr %0, ptr %5, align 8
  store ptr %1, ptr %6, align 8
  store ptr %2, ptr %7, align 8
  store ptr %3, ptr %8, align 8
  call void @llvm.lifetime.start.p0(i64 8, ptr %9) #7
  %10 = load ptr, ptr %5, align 8
  store ptr %10, ptr %9, align 8
  %11 = load ptr, ptr %7, align 8
  %12 = ptrtoint ptr %11 to i64
  %13 = trunc i64 %12 to i32
  %14 = load ptr, ptr %9, align 8
  %15 = getelementptr inbounds nuw %struct.GetOneCameraData, ptr %14, i32 0, i32 0
  %16 = load ptr, ptr %15, align 8
  %17 = load ptr, ptr %9, align 8
  %18 = getelementptr inbounds nuw %struct.GetOneCameraData, ptr %17, i32 0, i32 1
  %19 = load i32, ptr %18, align 8
  %20 = add nsw i32 %19, 1
  store i32 %20, ptr %18, align 8
  %21 = sext i32 %19 to i64
  %22 = getelementptr inbounds i32, ptr %16, i64 %21
  store i32 %13, ptr %22, align 4
  call void @llvm.lifetime.end.p0(i64 8, ptr %9) #7
  ret i1 true
}