; Function Attrs: mustprogress nofree norecurse nosync nounwind willreturn memory(write, argmem: readwrite, inaccessiblemem: none) uwtable
define internal noundef zeroext i1 @GetOneCamera(ptr noundef captures(none) %0, ptr readnone captures(none) %1, ptr noundef %2, ptr readnone captures(none) %3) #10 {
  %5 = ptrtoint ptr %2 to i64
  %6 = trunc i64 %5 to i32
  %7 = load ptr, ptr %0, align 8
  %8 = getelementptr inbounds nuw i8, ptr %0, i64 8
  %9 = load i32, ptr %8, align 8
  %10 = add nsw i32 %9, 1
  store i32 %10, ptr %8, align 8
  %11 = sext i32 %9 to i64
  %12 = getelementptr inbounds i32, ptr %7, i64 %11
  store i32 %6, ptr %12, align 4
  ret i1 true
}